target datalayout = "e-m:e-p270:32:32-p271:32:32-p272:64:64-i64:64-i128:128-f80:128-n8:16:32:64-S128"
target triple = "x86_64-pc-linux-gnu"

%struct.traceobj_arg = type { i32, i32, i64, i64, ptr, ptr, ptr }
%struct.allocation_info = type { i32, i64, i64, ptr, i64, ptr, i64, i64 }

@tmp_trace_arg = internal global ptr null, align 8

; Function Attrs: inlinehint nounwind sspstrong willreturn memory(none) uwtable
define internal i64 @RB_INT2FIX(i64 noundef %0) #6 {
  %2 = alloca i64, align 8
  %3 = alloca i64, align 8
  %4 = alloca i64, align 8
  %5 = alloca i64, align 8
  %6 = alloca i64, align 8
  %7 = alloca i64, align 8
  store i64 %0, ptr %2, align 8, !tbaa !6
  call void @llvm.lifetime.start.p0(i64 8, ptr %3) #17
  %8 = load i64, ptr %2, align 8, !tbaa !6
  store i64 %8, ptr %3, align 8, !tbaa !6
  call void @llvm.lifetime.start.p0(i64 8, ptr %4) #17
  %9 = load i64, ptr %3, align 8, !tbaa !6
  %10 = shl i64 %9, 1
  %11 = add i64 %10, 1
  store i64 %11, ptr %4, align 8, !tbaa !6
  call void @llvm.lifetime.start.p0(i64 8, ptr %5) #17
  %12 = load i64, ptr %4, align 8, !tbaa !6
  store i64 %12, ptr %5, align 8, !tbaa !6
  call void @llvm.lifetime.start.p0(i64 8, ptr %6) #17
  %13 = load i64, ptr %5, align 8, !tbaa !6
  store i64 %13, ptr %6, align 8, !tbaa !6
  call void @llvm.lifetime.start.p0(i64 8, ptr %7) #17
  %14 = load i64, ptr %6, align 8, !tbaa !6
  store i64 %14, ptr %7, align 8, !tbaa !6
  %15 = load i64, ptr %7, align 8, !tbaa !6
  call void @llvm.lifetime.end.p0(i64 8, ptr %7) #17
  call void @llvm.lifetime.end.p0(i64 8, ptr %6) #17
  call void @llvm.lifetime.end.p0(i64 8, ptr %5) #17
  call void @llvm.lifetime.end.p0(i64 8, ptr %4) #17
  call void @llvm.lifetime.end.p0(i64 8, ptr %3) #17
  ret i64 %15
}

; Function Attrs: inlinehint nounwind sspstrong uwtable
define internal i64 @rb_ull2num_inline(i64 noundef %0) #3 {
  %2 = alloca i64, align 8
  %3 = alloca i64, align 8
  store i64 %0, ptr %3, align 8, !tbaa !55
  %4 = load i64, ptr %3, align 8, !tbaa !55
  %5 = icmp ult i64 %4, 4611686018427387904
  br i1 %5, label %6, label %9

6:                                                ; preds = %1
  %7 = load i64, ptr %3, align 8, !tbaa !55
  %8 = call i64 @RB_INT2FIX(i64 noundef %7) #18
  store i64 %8, ptr %2, align 8
  br label %12

9:                                                ; preds = %1
  %10 = load i64, ptr %3, align 8, !tbaa !55
  %11 = call i64 @rb_ull2inum(i64 noundef %10)
  store i64 %11, ptr %2, align 8
  br label %12

12:                                               ; preds = %9, %6
  %13 = load i64, ptr %2, align 8
  ret i64 %13
}

; Function Attrs: nounwind sspstrong uwtable
define internal ptr @lookup_allocation_info(i64 noundef %0) #0 {
  %2 = alloca ptr, align 8
  %3 = alloca i64, align 8
  %4 = alloca i64, align 8
  %5 = alloca i32, align 4
  store i64 %0, ptr %3, align 8, !tbaa !6
  %6 = load ptr, ptr @tmp_trace_arg, align 8, !tbaa !10
  %7 = icmp ne ptr %6, null
  br i1 %7, label %8, label %22

8:                                                ; preds = %1
  call void @llvm.lifetime.start.p0(i64 8, ptr %4) #17
  %9 = load ptr, ptr @tmp_trace_arg, align 8, !tbaa !10
  %10 = getelementptr inbounds nuw %struct.traceobj_arg, ptr %9, i32 0, i32 4
  %11 = load ptr, ptr %10, align 8, !tbaa !13
  %12 = load i64, ptr %3, align 8, !tbaa !6
  %13 = call i32 @rb_st_lookup(ptr noundef %11, i64 noundef %12, ptr noundef %4)
  %14 = icmp ne i32 %13, 0
  br i1 %14, label %15, label %18

15:                                               ; preds = %8
  %16 = load i64, ptr %4, align 8, !tbaa !6
  %17 = inttoptr i64 %16 to ptr
  store ptr %17, ptr %2, align 8
  store i32 1, ptr %5, align 4
  br label %19

18:                                               ; preds = %8
  store i32 0, ptr %5, align 4
  br label %19

19:                                               ; preds = %18, %15
  call void @llvm.lifetime.end.p0(i64 8, ptr %4) #17
  %20 = load i32, ptr %5, align 4
  switch i32 %20, label %25 [
    i32 0, label %21
    i32 1, label %23
  ]

21:                                               ; preds = %19
  br label %22

22:                                               ; preds = %21, %1
  store ptr null, ptr %2, align 8
  br label %23

23:                                               ; preds = %22, %19
  %24 = load ptr, ptr %2, align 8
  ret ptr %24

25:                                               ; preds = %19
  unreachable
}

; Function Attrs: nounwind sspstrong uwtable
define internal i64 @allocation_generation(i64 noundef %0, i64 noundef %1) #0 {
  %3 = alloca i64, align 8
  %4 = alloca i64, align 8
  %5 = alloca i64, align 8
  %6 = alloca ptr, align 8
  %7 = alloca i32, align 4
  store i64 %0, ptr %4, align 8, !tbaa !6
  store i64 %1, ptr %5, align 8, !tbaa !6
  call void @llvm.lifetime.start.p0(i64 8, ptr %6) #17
  %8 = load i64, ptr %5, align 8, !tbaa !6
  %9 = call ptr @lookup_allocation_info(i64 noundef %8)
  store ptr %9, ptr %6, align 8, !tbaa !22
  %10 = load ptr, ptr %6, align 8, !tbaa !22
  %11 = icmp ne ptr %10, null
  br i1 %11, label %12, label %17

12:                                               ; preds = %2
  %13 = load ptr, ptr %6, align 8, !tbaa !22
  %14 = getelementptr inbounds nuw %struct.allocation_info, ptr %13, i32 0, i32 7
  %15 = load i64, ptr %14, align 8, !tbaa !30
  %16 = call i64 @rb_ull2num_inline(i64 noundef %15)
  store i64 %16, ptr %3, align 8
  store i32 1, ptr %7, align 4
  br label %18

17:                                               ; preds = %2
  store i64 4, ptr %3, align 8
  store i32 1, ptr %7, align 4
  br label %18

18:                                               ; preds = %17, %12
  call void @llvm.lifetime.end.p0(i64 8, ptr %6) #17
  %19 = load i64, ptr %3, align 8
  ret i64 %19
}