; Function Attrs: nounwind sspstrong uwtable
define internal i64 @allocation_generation(i64 %0, i64 noundef %1) #0 {
  %3 = alloca i64, align 8
  %4 = load ptr, ptr @tmp_trace_arg, align 8, !tbaa !6
  %.not.i = icmp eq ptr %4, null
  br i1 %.not.i, label %rb_ull2num_inline.exit, label %5

5:                                                ; preds = %2
  call void @llvm.lifetime.start.p0(i64 8, ptr nonnull %3) #10
  %6 = getelementptr inbounds nuw i8, ptr %4, i64 24
  %7 = load ptr, ptr %6, align 8, !tbaa !11
  %8 = call i32 @rb_st_lookup(ptr noundef %7, i64 noundef %1, ptr noundef nonnull %3) #10
  %.not3.not.i = icmp eq i32 %8, 0
  %9 = load i64, ptr %3, align 8
  call void @llvm.lifetime.end.p0(i64 8, ptr nonnull %3) #10
  %.not = icmp eq i64 %9, 0
  %or.cond = select i1 %.not3.not.i, i1 true, i1 %.not
  br i1 %or.cond, label %rb_ull2num_inline.exit, label %10

10:                                               ; preds = %5
  %11 = inttoptr i64 %9 to ptr
  %12 = getelementptr inbounds nuw i8, ptr %11, i64 56
  %13 = load i64, ptr %12, align 8, !tbaa !33
  %14 = icmp ult i64 %13, 4611686018427387904
  br i1 %14, label %15, label %18

15:                                               ; preds = %10
  %16 = shl nuw nsw i64 %13, 1
  %17 = or disjoint i64 %16, 1
  br label %rb_ull2num_inline.exit

18:                                               ; preds = %10
  %19 = call i64 @rb_ull2inum(i64 noundef %13) #10
  br label %rb_ull2num_inline.exit

rb_ull2num_inline.exit:                           ; preds = %5, %2, %18, %15
  %.0 = phi i64 [ %17, %15 ], [ %19, %18 ], [ 4, %2 ], [ 4, %5 ]
  ret i64 %.0
}